target datalayout = "e-m:e-p270:32:32-p271:32:32-p272:64:64-i64:64-i128:128-f80:128-n8:16:32:64-S128"
target triple = "x86_64-unknown-linux-gnu"

%struct.QObjectBase_ = type { i32, i64 }
%struct.QObjectInputVisitor = type { %struct.Visitor, ptr, i8, %struct.anon, ptr }
%struct.Visitor = type { ptr, ptr, ptr, ptr, ptr, ptr, ptr, ptr, ptr, ptr, ptr, ptr, ptr, ptr, ptr, ptr, ptr, ptr, ptr, ptr, i32, %struct.CompatPolicy, ptr, ptr }
%struct.CompatPolicy = type { i8, i32, i8, i32, i8, i32, i8, i32 }
%struct.anon = type { ptr }
%struct.QObject = type { %struct.QObjectBase_ }
%struct.StackObject = type { ptr, ptr, ptr, ptr, ptr, i32, %struct.anon.1 }
%struct.anon.1 = type { ptr }

@.str.1 = private unnamed_addr constant [37 x i8] c"../qemu/qapi/qobject-input-visitor.c\00", align 1
@.str.12 = private unnamed_addr constant [59 x i8] c"QTYPE_NONE < obj->base.type && obj->base.type < QTYPE__MAX\00", align 1
@.str.13 = private unnamed_addr constant [105 x i8] c"/home/dtcxzyw/WorkSpace/Projects/compilers/llvm-opt-benchmark/bench/qemu/qemu/include/qapi/qmp/qobject.h\00", align 1
@__PRETTY_FUNCTION__.qobject_type = private unnamed_addr constant [36 x i8] c"QType qobject_type(const QObject *)\00", align 1
@.str.25 = private unnamed_addr constant [35 x i8] c"tos && qobject_to(QList, tos->obj)\00", align 1
@__PRETTY_FUNCTION__.qobject_input_check_list = private unnamed_addr constant [52 x i8] c"_Bool qobject_input_check_list(Visitor *, Error **)\00", align 1
@__func__.qobject_input_check_list = private unnamed_addr constant [25 x i8] c"qobject_input_check_list\00", align 1
@.str.26 = private unnamed_addr constant [37 x i8] c"Only %u list elements expected in %s\00", align 1

; Function Attrs: nounwind sspstrong uwtable
define internal i32 @qobject_type(ptr noundef %obj) #0 {
entry:
  %obj.addr = alloca ptr, align 8
  store ptr %obj, ptr %obj.addr, align 8
  %0 = load ptr, ptr %obj.addr, align 8
  %base = getelementptr inbounds %struct.QObject, ptr %0, i32 0, i32 0
  %type = getelementptr inbounds %struct.QObjectBase_, ptr %base, i32 0, i32 0
  %1 = load i32, ptr %type, align 8
  %cmp = icmp ult i32 0, %1
  br i1 %cmp, label %land.lhs.true, label %if.else

land.lhs.true:                                    ; preds = %entry
  %2 = load ptr, ptr %obj.addr, align 8
  %base1 = getelementptr inbounds %struct.QObject, ptr %2, i32 0, i32 0
  %type2 = getelementptr inbounds %struct.QObjectBase_, ptr %base1, i32 0, i32 0
  %3 = load i32, ptr %type2, align 8
  %cmp3 = icmp ult i32 %3, 7
  br i1 %cmp3, label %if.then, label %if.else

if.then:                                          ; preds = %land.lhs.true
  br label %if.end

if.else:                                          ; preds = %land.lhs.true, %entry
  call void @__assert_fail(ptr noundef @.str.12, ptr noundef @.str.13, i32 noundef 126, ptr noundef @__PRETTY_FUNCTION__.qobject_type) #7
  unreachable

if.end:                                           ; preds = %if.then
  %4 = load ptr, ptr %obj.addr, align 8
  %base4 = getelementptr inbounds %struct.QObject, ptr %4, i32 0, i32 0
  %type5 = getelementptr inbounds %struct.QObjectBase_, ptr %base4, i32 0, i32 0
  %5 = load i32, ptr %type5, align 8
  ret i32 %5
}

; Function Attrs: nounwind sspstrong uwtable
define internal ptr @qobject_check_type(ptr noundef %obj, i32 noundef %type) #0 {
entry:
  %retval = alloca ptr, align 8
  %obj.addr = alloca ptr, align 8
  %type.addr = alloca i32, align 4
  store ptr %obj, ptr %obj.addr, align 8
  store i32 %type, ptr %type.addr, align 4
  %0 = load ptr, ptr %obj.addr, align 8
  %tobool = icmp ne ptr %0, null
  br i1 %tobool, label %land.lhs.true, label %if.else

land.lhs.true:                                    ; preds = %entry
  %1 = load ptr, ptr %obj.addr, align 8
  %call = call i32 @qobject_type(ptr noundef %1)
  %2 = load i32, ptr %type.addr, align 4
  %cmp = icmp eq i32 %call, %2
  br i1 %cmp, label %if.then, label %if.else

if.then:                                          ; preds = %land.lhs.true
  %3 = load ptr, ptr %obj.addr, align 8
  store ptr %3, ptr %retval, align 8
  br label %return

if.else:                                          ; preds = %land.lhs.true, %entry
  store ptr null, ptr %retval, align 8
  br label %return

return:                                           ; preds = %if.else, %if.then
  %4 = load ptr, ptr %retval, align 8
  ret ptr %4
}

; Function Attrs: nounwind sspstrong uwtable
define internal ptr @to_qiv(ptr noundef %v) #0 {
entry:
  %v.addr = alloca ptr, align 8
  %__mptr = alloca ptr, align 8
  %tmp = alloca ptr, align 8
  store ptr %v, ptr %v.addr, align 8
  %0 = load ptr, ptr %v.addr, align 8
  store ptr %0, ptr %__mptr, align 8
  %1 = load ptr, ptr %__mptr, align 8
  %add.ptr = getelementptr i8, ptr %1, i64 0
  store ptr %add.ptr, ptr %tmp, align 8
  %2 = load ptr, ptr %tmp, align 8
  ret ptr %2
}

; Function Attrs: nounwind sspstrong uwtable
define internal zeroext i1 @qobject_input_check_list(ptr noundef %v, ptr noundef %errp) #0 {
entry:
  %retval = alloca i1, align 1
  %v.addr = alloca ptr, align 8
  %errp.addr = alloca ptr, align 8
  %qiv = alloca ptr, align 8
  %tos = alloca ptr, align 8
  store ptr %v, ptr %v.addr, align 8
  store ptr %errp, ptr %errp.addr, align 8
  %0 = load ptr, ptr %v.addr, align 8
  %call = call ptr @to_qiv(ptr noundef %0)
  store ptr %call, ptr %qiv, align 8
  %1 = load ptr, ptr %qiv, align 8
  %stack = getelementptr inbounds %struct.QObjectInputVisitor, ptr %1, i32 0, i32 3
  %slh_first = getelementptr inbounds %struct.anon, ptr %stack, i32 0, i32 0
  %2 = load ptr, ptr %slh_first, align 8
  store ptr %2, ptr %tos, align 8
  %3 = load ptr, ptr %tos, align 8
  %tobool = icmp ne ptr %3, null
  br i1 %tobool, label %land.lhs.true, label %if.else

land.lhs.true:                                    ; preds = %entry
  %4 = load ptr, ptr %tos, align 8
  %obj = getelementptr inbounds %struct.StackObject, ptr %4, i32 0, i32 1
  %5 = load ptr, ptr %obj, align 8
  %call1 = call ptr @qobject_check_type(ptr noundef %5, i32 noundef 5)
  %tobool2 = icmp ne ptr %call1, null
  br i1 %tobool2, label %if.then, label %if.else

if.then:                                          ; preds = %land.lhs.true
  br label %if.end

if.else:                                          ; preds = %land.lhs.true, %entry
  call void @__assert_fail(ptr noundef @.str.25, ptr noundef @.str.1, i32 noundef 361, ptr noundef @__PRETTY_FUNCTION__.qobject_input_check_list) #7
  unreachable

if.end:                                           ; preds = %if.then
  %6 = load ptr, ptr %tos, align 8
  %entry3 = getelementptr inbounds %struct.StackObject, ptr %6, i32 0, i32 4
  %7 = load ptr, ptr %entry3, align 8
  %tobool4 = icmp ne ptr %7, null
  br i1 %tobool4, label %if.then5, label %if.end7

if.then5:                                         ; preds = %if.end
  %8 = load ptr, ptr %errp.addr, align 8
  %9 = load ptr, ptr %tos, align 8
  %index = getelementptr inbounds %struct.StackObject, ptr %9, i32 0, i32 5
  %10 = load i32, ptr %index, align 8
  %add = add i32 %10, 1
  %11 = load ptr, ptr %qiv, align 8
  %call6 = call ptr @full_name_nth(ptr noundef %11, ptr noundef null, i32 noundef 1)
  call void (ptr, ptr, i32, ptr, ptr, ...) @error_setg_internal(ptr noundef %8, ptr noundef @.str.1, i32 noundef 365, ptr noundef @__func__.qobject_input_check_list, ptr noundef @.str.26, i32 noundef %add, ptr noundef %call6)
  store i1 false, ptr %retval, align 1
  br label %return

if.end7:                                          ; preds = %if.end
  store i1 true, ptr %retval, align 1
  br label %return

return:                                           ; preds = %if.end7, %if.then5
  %12 = load i1, ptr %retval, align 1
  ret i1 %12
}