; Function Attrs: nounwind sspstrong uwtable
define internal noundef zeroext i1 @qobject_input_check_list(ptr noundef captures(none) %v, ptr noundef %errp) #0 {
entry:
  %stack = getelementptr inbounds nuw i8, ptr %v, i64 232
  %0 = load ptr, ptr %stack, align 8
  %tobool.not = icmp eq ptr %0, null
  br i1 %tobool.not, label %if.else, label %land.lhs.true

land.lhs.true:                                    ; preds = %entry
  %obj = getelementptr inbounds nuw i8, ptr %0, i64 8
  %1 = load ptr, ptr %obj, align 8
  %tobool.not.i = icmp eq ptr %1, null
  br i1 %tobool.not.i, label %if.else, label %land.lhs.true.i

land.lhs.true.i:                                  ; preds = %land.lhs.true
  %obj.val.i = load i32, ptr %1, align 8
  %2 = add i32 %obj.val.i, -1
  %or.cond.i.i = icmp ult i32 %2, 6
  br i1 %or.cond.i.i, label %qobject_type.exit.i, label %if.else.i.i

if.else.i.i:                                      ; preds = %land.lhs.true.i
  tail call void @__assert_fail(ptr noundef nonnull @.str.12, ptr noundef nonnull @.str.13, i32 noundef 126, ptr noundef nonnull @__PRETTY_FUNCTION__.qobject_type) #7
  unreachable

qobject_type.exit.i:                              ; preds = %land.lhs.true.i
  %cmp.i = icmp eq i32 %obj.val.i, 5
  br i1 %cmp.i, label %if.end, label %if.else

if.else:                                          ; preds = %qobject_type.exit.i, %land.lhs.true, %entry
  tail call void @__assert_fail(ptr noundef nonnull @.str.25, ptr noundef nonnull @.str.1, i32 noundef 361, ptr noundef nonnull @__PRETTY_FUNCTION__.qobject_input_check_list) #7
  unreachable

if.end:                                           ; preds = %qobject_type.exit.i
  %entry3 = getelementptr inbounds nuw i8, ptr %0, i64 32
  %3 = load ptr, ptr %entry3, align 8
  %tobool4.not = icmp eq ptr %3, null
  br i1 %tobool4.not, label %return, label %if.then5

if.then5:                                         ; preds = %if.end
  %index = getelementptr inbounds nuw i8, ptr %0, i64 40
  %4 = load i32, ptr %index, align 8
  %add = add i32 %4, 1
  %call6 = tail call fastcc ptr @full_name_nth(ptr noundef nonnull %v, ptr noundef null, i32 noundef 1)
  tail call void (ptr, ptr, i32, ptr, ptr, ...) @error_setg_internal(ptr noundef %errp, ptr noundef nonnull @.str.1, i32 noundef 365, ptr noundef nonnull @__func__.qobject_input_check_list, ptr noundef nonnull @.str.26, i32 noundef %add, ptr noundef %call6) #8
  br label %return

return:                                           ; preds = %if.end, %if.then5
  ret i1 %tobool4.not
}